target datalayout = "e-m:e-p270:32:32-p271:32:32-p272:64:64-i64:64-i128:128-f80:128-n8:16:32:64-S128"
target triple = "x86_64-pc-linux-gnu"

%"class.glslang::TIntermSymbol" = type { %"class.glslang::TIntermTyped", i64, i32, %"class.std::__cxx11::basic_string", %"class.glslang::TConstUnionArray", ptr }
%"class.glslang::TIntermTyped" = type { %class.TIntermNode, %"class.glslang::TType" }
%class.TIntermNode = type { ptr, %"struct.glslang::TSourceLoc" }
%"struct.glslang::TSourceLoc" = type { ptr, i32, i32, i32 }
%"class.glslang::TType" = type { ptr, i32, [4 x i8], %"class.glslang::TQualifier", ptr, %union.anon, ptr, ptr, %"struct.glslang::TSampler", ptr, ptr }
%"class.glslang::TQualifier" = type <{ ptr, i64, i8, [3 x i8], i32, i32, i64, i64, i8, i8, i8, i8, i8, [3 x i8], i32, i8, i8, i8, i8, i32, ptr, i8, i8, [6 x i8] }>
%union.anon = type { ptr }
%"struct.glslang::TSampler" = type { i32 }
%"class.std::__cxx11::basic_string" = type { %"struct.std::__cxx11::basic_string<char, std::char_traits<char>, glslang::pool_allocator<char>>::_Alloc_hider", i64, %union.anon.0 }
%"struct.std::__cxx11::basic_string<char, std::char_traits<char>, glslang::pool_allocator<char>>::_Alloc_hider" = type { %"class.glslang::pool_allocator", ptr }
%"class.glslang::pool_allocator" = type { ptr }
%union.anon.0 = type { i64, [8 x i8] }
%"class.glslang::TConstUnionArray" = type { ptr, ptr }

; Function Attrs: mustprogress nounwind uwtable
define linkonce_odr noundef nonnull align 8 dereferenceable(16) ptr @_ZN7glslang16TConstUnionArrayaSERKS0_(ptr noundef nonnull align 8 dereferenceable(16) %0, ptr noundef nonnull align 8 dereferenceable(16) %1) #0 comdat align 2 {
  %3 = alloca ptr, align 8
  %4 = alloca ptr, align 8
  store ptr %0, ptr %3, align 8
  store ptr %1, ptr %4, align 8
  %5 = load ptr, ptr %3, align 8
  %6 = load ptr, ptr %4, align 8
  %7 = getelementptr inbounds %"class.glslang::TConstUnionArray", ptr %6, i32 0, i32 1
  %8 = load ptr, ptr %7, align 8
  %9 = getelementptr inbounds %"class.glslang::TConstUnionArray", ptr %5, i32 0, i32 1
  store ptr %8, ptr %9, align 8
  ret ptr %5
}

; Function Attrs: mustprogress nounwind uwtable
define linkonce_odr void @_ZN7glslang13TIntermSymbol15setConstSubtreeEPNS_12TIntermTypedE(ptr noundef nonnull align 8 dereferenceable(264) %0, ptr noundef %1) #0 comdat align 2 {
  %3 = alloca ptr, align 8
  %4 = alloca ptr, align 8
  store ptr %0, ptr %3, align 8
  store ptr %1, ptr %4, align 8
  %5 = load ptr, ptr %3, align 8
  %6 = load ptr, ptr %4, align 8
  %7 = getelementptr inbounds %"class.glslang::TIntermSymbol", ptr %5, i32 0, i32 5
  store ptr %6, ptr %7, align 8
  ret void
}

; Function Attrs: mustprogress nounwind uwtable
define linkonce_odr void @_ZN7glslang13TIntermSymbol13setConstArrayERKNS_16TConstUnionArrayE(ptr noundef nonnull align 8 dereferenceable(264) %0, ptr noundef nonnull align 8 dereferenceable(16) %1) #0 comdat align 2 {
  %3 = alloca ptr, align 8
  %4 = alloca ptr, align 8
  store ptr %0, ptr %3, align 8
  store ptr %1, ptr %4, align 8
  %5 = load ptr, ptr %3, align 8
  %6 = load ptr, ptr %4, align 8
  %7 = getelementptr inbounds %"class.glslang::TIntermSymbol", ptr %5, i32 0, i32 4
  %8 = call noundef nonnull align 8 dereferenceable(16) ptr @_ZN7glslang16TConstUnionArrayaSERKS0_(ptr noundef nonnull align 8 dereferenceable(16) %7, ptr noundef nonnull align 8 dereferenceable(16) %6) #10
  ret void
}

; Function Attrs: mustprogress nounwind uwtable
define linkonce_odr noundef ptr @_ZN11TIntermNodenwEm(i64 noundef %0) #0 comdat align 2 {
  %2 = alloca i64, align 8
  store i64 %0, ptr %2, align 8
  %3 = call noundef nonnull align 8 dereferenceable(96) ptr @_ZN7glslang22GetThreadPoolAllocatorEv()
  %4 = load i64, ptr %2, align 8
  %5 = call noundef ptr @_ZN7glslang14TPoolAllocator8allocateEm(ptr noundef nonnull align 8 dereferenceable(96) %3, i64 noundef %4)
  ret ptr %5
}

; Function Attrs: mustprogress nounwind uwtable
define noundef ptr @_ZN7glslang13TIntermediate9addSymbolExRKNSt7__cxx1112basic_stringIcSt11char_traitsIcENS_14pool_allocatorIcEEEERKNS_5TTypeERKNS_16TConstUnionArrayEPNS_12TIntermTypedERKNS_10TSourceLocE(ptr noundef nonnull align 8 dereferenceable(2024) %0, i64 noundef %1, ptr noundef nonnull align 8 dereferenceable(40) %2, ptr noundef nonnull align 8 dereferenceable(152) %3, ptr noundef nonnull align 8 dereferenceable(16) %4, ptr noundef %5, ptr noundef nonnull align 8 dereferenceable(24) %6) #0 align 2 {
  %8 = alloca ptr, align 8
  %9 = alloca i64, align 8
  %10 = alloca ptr, align 8
  %11 = alloca ptr, align 8
  %12 = alloca ptr, align 8
  %13 = alloca ptr, align 8
  %14 = alloca ptr, align 8
  %15 = alloca ptr, align 8
  store ptr %0, ptr %8, align 8
  store i64 %1, ptr %9, align 8
  store ptr %2, ptr %10, align 8
  store ptr %3, ptr %11, align 8
  store ptr %4, ptr %12, align 8
  store ptr %5, ptr %13, align 8
  store ptr %6, ptr %14, align 8
  %16 = call noundef ptr @_ZN11TIntermNodenwEm(i64 noundef 264)
  %17 = load i64, ptr %9, align 8
  %18 = load ptr, ptr %10, align 8
  %19 = load ptr, ptr %11, align 8
  call void @_ZN7glslang13TIntermSymbolC2ExRKNSt7__cxx1112basic_stringIcSt11char_traitsIcENS_14pool_allocatorIcEEEERKNS_5TTypeE(ptr noundef nonnull align 8 dereferenceable(264) %16, i64 noundef %17, ptr noundef nonnull align 8 dereferenceable(40) %18, ptr noundef nonnull align 8 dereferenceable(152) %19)
  store ptr %16, ptr %15, align 8
  %20 = load ptr, ptr %15, align 8
  %21 = load ptr, ptr %14, align 8
  %22 = load ptr, ptr %20, align 8
  %23 = getelementptr inbounds ptr, ptr %22, i64 1
  %24 = load ptr, ptr %23, align 8
  call void %24(ptr noundef nonnull align 8 dereferenceable(32) %20, ptr noundef nonnull align 8 dereferenceable(24) %21)
  %25 = load ptr, ptr %15, align 8
  %26 = load ptr, ptr %12, align 8
  call void @_ZN7glslang13TIntermSymbol13setConstArrayERKNS_16TConstUnionArrayE(ptr noundef nonnull align 8 dereferenceable(264) %25, ptr noundef nonnull align 8 dereferenceable(16) %26)
  %27 = load ptr, ptr %15, align 8
  %28 = load ptr, ptr %13, align 8
  call void @_ZN7glslang13TIntermSymbol15setConstSubtreeEPNS_12TIntermTypedE(ptr noundef nonnull align 8 dereferenceable(264) %27, ptr noundef %28)
  %29 = load ptr, ptr %15, align 8
  ret ptr %29
}

; Function Attrs: mustprogress nounwind uwtable
define noundef ptr @_ZN7glslang13TIntermediate9addSymbolERKNS_9TVariableERKNS_10TSourceLocE(ptr noundef nonnull align 8 dereferenceable(2024) %0, ptr noundef nonnull align 8 dereferenceable(236) %1, ptr noundef nonnull align 8 dereferenceable(24) %2) #0 align 2 {
  %4 = alloca ptr, align 8
  %5 = alloca ptr, align 8
  %6 = alloca ptr, align 8
  store ptr %0, ptr %4, align 8
  store ptr %1, ptr %5, align 8
  store ptr %2, ptr %6, align 8
  %7 = load ptr, ptr %4, align 8
  %8 = load ptr, ptr %5, align 8
  %9 = load ptr, ptr %8, align 8
  %10 = getelementptr inbounds ptr, ptr %9, i64 15
  %11 = load ptr, ptr %10, align 8
  %12 = call noundef i64 %11(ptr noundef nonnull align 8 dereferenceable(33) %8)
  %13 = load ptr, ptr %5, align 8
  %14 = load ptr, ptr %13, align 8
  %15 = getelementptr inbounds ptr, ptr %14, i64 3
  %16 = load ptr, ptr %15, align 8
  %17 = call noundef nonnull align 8 dereferenceable(40) ptr %16(ptr noundef nonnull align 8 dereferenceable(33) %13)
  %18 = load ptr, ptr %5, align 8
  %19 = load ptr, ptr %18, align 8
  %20 = getelementptr inbounds ptr, ptr %19, i64 12
  %21 = load ptr, ptr %20, align 8
  %22 = call noundef nonnull align 8 dereferenceable(152) ptr %21(ptr noundef nonnull align 8 dereferenceable(236) %18)
  %23 = load ptr, ptr %5, align 8
  %24 = load ptr, ptr %23, align 8
  %25 = getelementptr inbounds ptr, ptr %24, i64 23
  %26 = load ptr, ptr %25, align 8
  %27 = call noundef nonnull align 8 dereferenceable(16) ptr %26(ptr noundef nonnull align 8 dereferenceable(236) %23)
  %28 = load ptr, ptr %5, align 8
  %29 = load ptr, ptr %28, align 8
  %30 = getelementptr inbounds ptr, ptr %29, i64 27
  %31 = load ptr, ptr %30, align 8
  %32 = call noundef ptr %31(ptr noundef nonnull align 8 dereferenceable(236) %28)
  %33 = load ptr, ptr %6, align 8
  %34 = call noundef ptr @_ZN7glslang13TIntermediate9addSymbolExRKNSt7__cxx1112basic_stringIcSt11char_traitsIcENS_14pool_allocatorIcEEEERKNS_5TTypeERKNS_16TConstUnionArrayEPNS_12TIntermTypedERKNS_10TSourceLocE(ptr noundef nonnull align 8 dereferenceable(2024) %7, i64 noundef %12, ptr noundef nonnull align 8 dereferenceable(40) %17, ptr noundef nonnull align 8 dereferenceable(152) %22, ptr noundef nonnull align 8 dereferenceable(16) %27, ptr noundef %32, ptr noundef nonnull align 8 dereferenceable(24) %33)
  ret ptr %34
}

; Function Attrs: mustprogress nounwind uwtable
define linkonce_odr void @_ZN7glslang10TSourceLoc4initEv(ptr noundef nonnull align 8 dereferenceable(24) %0) #0 comdat align 2 {
  %2 = alloca ptr, align 8
  store ptr %0, ptr %2, align 8
  %3 = load ptr, ptr %2, align 8
  %4 = getelementptr inbounds %"struct.glslang::TSourceLoc", ptr %3, i32 0, i32 0
  store ptr null, ptr %4, align 8
  %5 = getelementptr inbounds %"struct.glslang::TSourceLoc", ptr %3, i32 0, i32 1
  store i32 0, ptr %5, align 8
  %6 = getelementptr inbounds %"struct.glslang::TSourceLoc", ptr %3, i32 0, i32 2
  store i32 0, ptr %6, align 4
  %7 = getelementptr inbounds %"struct.glslang::TSourceLoc", ptr %3, i32 0, i32 3
  store i32 0, ptr %7, align 8
  ret void
}

; Function Attrs: mustprogress nounwind uwtable
define noundef ptr @_ZN7glslang13TIntermediate9addSymbolERKNS_9TVariableE(ptr noundef nonnull align 8 dereferenceable(2024) %0, ptr noundef nonnull align 8 dereferenceable(236) %1) #0 align 2 {
  %3 = alloca ptr, align 8
  %4 = alloca ptr, align 8
  %5 = alloca %"struct.glslang::TSourceLoc", align 8
  store ptr %0, ptr %3, align 8
  store ptr %1, ptr %4, align 8
  %6 = load ptr, ptr %3, align 8
  call void @_ZN7glslang10TSourceLoc4initEv(ptr noundef nonnull align 8 dereferenceable(24) %5)
  %7 = load ptr, ptr %4, align 8
  %8 = call noundef ptr @_ZN7glslang13TIntermediate9addSymbolERKNS_9TVariableERKNS_10TSourceLocE(ptr noundef nonnull align 8 dereferenceable(2024) %6, ptr noundef nonnull align 8 dereferenceable(236) %7, ptr noundef nonnull align 8 dereferenceable(24) %5)
  ret ptr %8
}

; Function Attrs: mustprogress nounwind uwtable
define void @_ZN7glslang13TIntermediate20addSymbolLinkageNodeERPNS_16TIntermAggregateERKNS_7TSymbolE(ptr noundef nonnull align 8 dereferenceable(2024) %0, ptr noundef nonnull align 8 dereferenceable(8) %1, ptr noundef nonnull align 8 dereferenceable(33) %2) #0 align 2 {
  %4 = alloca ptr, align 8
  %5 = alloca ptr, align 8
  %6 = alloca ptr, align 8
  %7 = alloca ptr, align 8
  %8 = alloca ptr, align 8
  %9 = alloca ptr, align 8
  store ptr %0, ptr %4, align 8
  store ptr %1, ptr %5, align 8
  store ptr %2, ptr %6, align 8
  %10 = load ptr, ptr %4, align 8
  %11 = load ptr, ptr %6, align 8
  %12 = load ptr, ptr %11, align 8
  %13 = getelementptr inbounds ptr, ptr %12, i64 10
  %14 = load ptr, ptr %13, align 8
  %15 = call noundef ptr %14(ptr noundef nonnull align 8 dereferenceable(33) %11)
  store ptr %15, ptr %7, align 8
  %16 = load ptr, ptr %7, align 8
  %17 = icmp ne ptr %16, null
  br i1 %17, label %29, label %18

18:                                               ; preds = %3
  %19 = load ptr, ptr %6, align 8
  %20 = load ptr, ptr %19, align 8
  %21 = getelementptr inbounds ptr, ptr %20, i64 11
  %22 = load ptr, ptr %21, align 8
  %23 = call noundef ptr %22(ptr noundef nonnull align 8 dereferenceable(33) %19)
  store ptr %23, ptr %8, align 8
  %24 = load ptr, ptr %8, align 8
  %25 = load ptr, ptr %24, align 8
  %26 = getelementptr inbounds ptr, ptr %25, i64 22
  %27 = load ptr, ptr %26, align 8
  %28 = call noundef nonnull align 8 dereferenceable(236) ptr %27(ptr noundef nonnull align 8 dereferenceable(56) %24)
  store ptr %28, ptr %7, align 8
  br label %29

29:                                               ; preds = %18, %3
  %30 = load ptr, ptr %7, align 8
  %31 = call noundef ptr @_ZN7glslang13TIntermediate9addSymbolERKNS_9TVariableE(ptr noundef nonnull align 8 dereferenceable(2024) %10, ptr noundef nonnull align 8 dereferenceable(236) %30)
  store ptr %31, ptr %9, align 8
  %32 = load ptr, ptr %5, align 8
  %33 = load ptr, ptr %32, align 8
  %34 = load ptr, ptr %9, align 8
  %35 = call noundef ptr @_ZN7glslang13TIntermediate13growAggregateEP11TIntermNodeS2_(ptr noundef nonnull align 8 dereferenceable(2024) %10, ptr noundef %33, ptr noundef %34)
  %36 = load ptr, ptr %5, align 8
  store ptr %35, ptr %36, align 8
  ret void
}