; Function Attrs: mustprogress nounwind uwtable
define void @_ZN7glslang13TIntermediate20addSymbolLinkageNodeERPNS_16TIntermAggregateERKNS_7TSymbolE(ptr nocapture nonnull readnone align 8 %0, ptr nocapture noundef nonnull align 8 dereferenceable(8) %1, ptr noundef nonnull align 8 dereferenceable(33) %2) local_unnamed_addr #0 align 2 {
  %4 = alloca %"struct.glslang::TSourceLoc", align 8
  %5 = load ptr, ptr %2, align 8
  %6 = getelementptr inbounds i8, ptr %5, i64 80
  %7 = load ptr, ptr %6, align 8
  %8 = tail call noundef ptr %7(ptr noundef nonnull align 8 dereferenceable(33) %2) #17
  %.not = icmp eq ptr %8, null
  br i1 %.not, label %9, label %18

9:                                                ; preds = %3
  %10 = load ptr, ptr %2, align 8
  %11 = getelementptr inbounds i8, ptr %10, i64 88
  %12 = load ptr, ptr %11, align 8
  %13 = tail call noundef ptr %12(ptr noundef nonnull align 8 dereferenceable(33) %2) #17
  %14 = load ptr, ptr %13, align 8
  %15 = getelementptr inbounds i8, ptr %14, i64 176
  %16 = load ptr, ptr %15, align 8
  %17 = tail call noundef nonnull align 8 dereferenceable(236) ptr %16(ptr noundef nonnull align 8 dereferenceable(56) %13) #17
  br label %18

18:                                               ; preds = %9, %3
  %.0 = phi ptr [ %8, %3 ], [ %17, %9 ]
  call void @llvm.lifetime.start.p0(i64 24, ptr nonnull %4)
  call void @llvm.memset.p0.i64(ptr noundef nonnull align 8 dereferenceable(20) %4, i8 0, i64 20, i1 false)
  %19 = load ptr, ptr %.0, align 8
  %20 = getelementptr inbounds i8, ptr %19, i64 120
  %21 = load ptr, ptr %20, align 8
  %22 = tail call noundef i64 %21(ptr noundef nonnull align 8 dereferenceable(33) %.0) #17
  %23 = load ptr, ptr %.0, align 8
  %24 = getelementptr inbounds i8, ptr %23, i64 24
  %25 = load ptr, ptr %24, align 8
  %26 = tail call noundef nonnull align 8 dereferenceable(40) ptr %25(ptr noundef nonnull align 8 dereferenceable(33) %.0) #17
  %27 = load ptr, ptr %.0, align 8
  %28 = getelementptr inbounds i8, ptr %27, i64 96
  %29 = load ptr, ptr %28, align 8
  %30 = tail call noundef nonnull align 8 dereferenceable(152) ptr %29(ptr noundef nonnull align 8 dereferenceable(236) %.0) #17
  %31 = load ptr, ptr %.0, align 8
  %32 = getelementptr inbounds i8, ptr %31, i64 184
  %33 = load ptr, ptr %32, align 8
  %34 = tail call noundef nonnull align 8 dereferenceable(16) ptr %33(ptr noundef nonnull align 8 dereferenceable(236) %.0) #17
  %35 = load ptr, ptr %.0, align 8
  %36 = getelementptr inbounds i8, ptr %35, i64 216
  %37 = load ptr, ptr %36, align 8
  %38 = tail call noundef ptr %37(ptr noundef nonnull align 8 dereferenceable(236) %.0) #17
  %39 = tail call noundef nonnull align 8 dereferenceable(96) ptr @_ZN7glslang22GetThreadPoolAllocatorEv() #17
  %40 = tail call noundef ptr @_ZN7glslang14TPoolAllocator8allocateEm(ptr noundef nonnull align 8 dereferenceable(96) %39, i64 noundef 264) #17
  tail call void @_ZN7glslang13TIntermSymbolC2ExRKNSt7__cxx1112basic_stringIcSt11char_traitsIcENS_14pool_allocatorIcEEEERKNS_5TTypeE(ptr noundef nonnull align 8 dereferenceable(264) %40, i64 noundef %22, ptr noundef nonnull align 8 dereferenceable(40) %26, ptr noundef nonnull align 8 dereferenceable(152) %30)
  %41 = load ptr, ptr %40, align 8
  %42 = getelementptr inbounds i8, ptr %41, i64 8
  %43 = load ptr, ptr %42, align 8
  call void %43(ptr noundef nonnull align 8 dereferenceable(32) %40, ptr noundef nonnull align 8 dereferenceable(24) %4) #17
  %44 = getelementptr inbounds i8, ptr %34, i64 8
  %45 = load ptr, ptr %44, align 8
  %46 = getelementptr inbounds i8, ptr %40, i64 248
  store ptr %45, ptr %46, align 8
  %47 = getelementptr inbounds i8, ptr %40, i64 256
  store ptr %38, ptr %47, align 8
  call void @llvm.lifetime.end.p0(i64 24, ptr nonnull %4)
  %48 = load ptr, ptr %1, align 8
  %49 = call noundef ptr @_ZN7glslang13TIntermediate13growAggregateEP11TIntermNodeS2_(ptr nonnull align 8 poison, ptr noundef %48, ptr noundef nonnull %40)
  store ptr %49, ptr %1, align 8
  ret void
}